target datalayout = "e-m:e-p270:32:32-p271:32:32-p272:64:64-i64:64-i128:128-f80:128-n8:16:32:64-S128"
target triple = "x86_64-pc-linux-gnu"

%struct._lv_obj_t = type { ptr, ptr, ptr, ptr, ptr, %struct.lv_area_t, i32, i16, i16 }
%struct.lv_area_t = type { i32, i32, i32, i32 }
%struct.lv_event_list_t = type { %struct._lv_array_t, i8 }
%struct._lv_array_t = type { ptr, i32, i32, i32, i8 }
%struct._lv_obj_spec_attr_t = type { ptr, ptr, %struct.lv_event_list_t, %struct.lv_point_t, i32, i32, i16, i16 }
%struct.lv_point_t = type { i32, i32 }

; Function Attrs: nounwind uwtable
define internal void @refresh_children_style(ptr noundef %0) #0 {
  %2 = alloca ptr, align 8
  %3 = alloca i32, align 4
  %4 = alloca i32, align 4
  %5 = alloca ptr, align 8
  store ptr %0, ptr %2, align 8, !tbaa !30
  call void @llvm.lifetime.start.p0(i64 4, ptr %3) #6
  call void @llvm.lifetime.start.p0(i64 4, ptr %4) #6
  %6 = load ptr, ptr %2, align 8, !tbaa !30
  %7 = call i32 @lv_obj_get_child_count(ptr noundef %6)
  store i32 %7, ptr %4, align 4, !tbaa !32
  store i32 0, ptr %3, align 4, !tbaa !32
  br label %8

8:                                                ; preds = %27, %1
  %9 = load i32, ptr %3, align 4, !tbaa !32
  %10 = load i32, ptr %4, align 4, !tbaa !32
  %11 = icmp ult i32 %9, %10
  br i1 %11, label %12, label %30

12:                                               ; preds = %8
  call void @llvm.lifetime.start.p0(i64 8, ptr %5) #6
  %13 = load ptr, ptr %2, align 8, !tbaa !30
  %14 = getelementptr inbounds nuw %struct._lv_obj_t, ptr %13, i32 0, i32 2
  %15 = load ptr, ptr %14, align 8, !tbaa !85
  %16 = getelementptr inbounds nuw %struct._lv_obj_spec_attr_t, ptr %15, i32 0, i32 0
  %17 = load ptr, ptr %16, align 8, !tbaa !86
  %18 = load i32, ptr %3, align 4, !tbaa !32
  %19 = zext i32 %18 to i64
  %20 = getelementptr inbounds nuw ptr, ptr %17, i64 %19
  %21 = load ptr, ptr %20, align 8, !tbaa !30
  store ptr %21, ptr %5, align 8, !tbaa !30
  %22 = load ptr, ptr %5, align 8, !tbaa !30
  call void @lv_obj_invalidate(ptr noundef %22)
  %23 = load ptr, ptr %5, align 8, !tbaa !30
  %24 = call i32 @lv_obj_send_event(ptr noundef %23, i32 noundef 50, ptr noundef null)
  %25 = load ptr, ptr %5, align 8, !tbaa !30
  call void @lv_obj_invalidate(ptr noundef %25)
  %26 = load ptr, ptr %5, align 8, !tbaa !30
  call void @refresh_children_style(ptr noundef %26)
  call void @llvm.lifetime.end.p0(i64 8, ptr %5) #6
  br label %27

27:                                               ; preds = %12
  %28 = load i32, ptr %3, align 4, !tbaa !32
  %29 = add i32 %28, 1
  store i32 %29, ptr %3, align 4, !tbaa !32
  br label %8, !llvm.loop !90

30:                                               ; preds = %8
  call void @llvm.lifetime.end.p0(i64 4, ptr %4) #6
  call void @llvm.lifetime.end.p0(i64 4, ptr %3) #6
  ret void
}