; Function Attrs: nounwind uwtable
define internal fastcc void @refresh_children_style(ptr noundef %0) unnamed_addr #0 {
  %2 = tail call i32 @lv_obj_get_child_count(ptr noundef %0) #9
  %.not = icmp eq i32 %2, 0
  br i1 %.not, label %._crit_edge, label %.lr.ph

.lr.ph:                                           ; preds = %1
  %3 = getelementptr inbounds nuw i8, ptr %0, i64 16
  %wide.trip.count = zext i32 %2 to i64
  br label %4

4:                                                ; preds = %.lr.ph, %4
  %indvars.iv = phi i64 [ 0, %.lr.ph ], [ %indvars.iv.next, %4 ]
  %5 = load ptr, ptr %3, align 8, !tbaa !87
  %6 = load ptr, ptr %5, align 8, !tbaa !88
  %7 = getelementptr inbounds nuw ptr, ptr %6, i64 %indvars.iv
  %8 = load ptr, ptr %7, align 8, !tbaa !83
  tail call void @lv_obj_invalidate(ptr noundef %8) #9
  %9 = tail call i32 @lv_obj_send_event(ptr noundef %8, i32 noundef 50, ptr noundef null) #9
  tail call void @lv_obj_invalidate(ptr noundef %8) #9
  tail call fastcc void @refresh_children_style(ptr noundef %8)
  %indvars.iv.next = add nuw nsw i64 %indvars.iv, 1
  %exitcond.not = icmp eq i64 %indvars.iv.next, %wide.trip.count
  br i1 %exitcond.not, label %._crit_edge, label %4, !llvm.loop !92

._crit_edge:                                      ; preds = %4, %1
  ret void
}